target datalayout = "e-m:e-p270:32:32-p271:32:32-p272:64:64-i64:64-i128:128-f80:128-n8:16:32:64-S128"
target triple = "x86_64-pc-linux-gnu"

%struct.AVBPrint = type { ptr, i32, i32, i32, [1 x i8], [1000 x i8] }

; Function Attrs: nounwind uwtable
define i32 @av_bprint_finalize(ptr noundef %0, ptr noundef %1) #0 {
  %3 = alloca ptr, align 8
  %4 = alloca ptr, align 8
  %5 = alloca i32, align 4
  %6 = alloca ptr, align 8
  %7 = alloca i32, align 4
  store ptr %0, ptr %3, align 8, !tbaa !4
  store ptr %1, ptr %4, align 8, !tbaa !25
  call void @llvm.lifetime.start.p0(i64 4, ptr %5) #9
  %8 = load ptr, ptr %3, align 8, !tbaa !4
  %9 = getelementptr inbounds nuw %struct.AVBPrint, ptr %8, i32 0, i32 1
  %10 = load i32, ptr %9, align 8, !tbaa !14
  %11 = add i32 %10, 1
  %12 = load ptr, ptr %3, align 8, !tbaa !4
  %13 = getelementptr inbounds nuw %struct.AVBPrint, ptr %12, i32 0, i32 2
  %14 = load i32, ptr %13, align 4, !tbaa !15
  %15 = icmp ugt i32 %11, %14
  br i1 %15, label %16, label %20

16:                                               ; preds = %2
  %17 = load ptr, ptr %3, align 8, !tbaa !4
  %18 = getelementptr inbounds nuw %struct.AVBPrint, ptr %17, i32 0, i32 2
  %19 = load i32, ptr %18, align 4, !tbaa !15
  br label %25

20:                                               ; preds = %2
  %21 = load ptr, ptr %3, align 8, !tbaa !4
  %22 = getelementptr inbounds nuw %struct.AVBPrint, ptr %21, i32 0, i32 1
  %23 = load i32, ptr %22, align 8, !tbaa !14
  %24 = add i32 %23, 1
  br label %25

25:                                               ; preds = %20, %16
  %26 = phi i32 [ %19, %16 ], [ %24, %20 ]
  store i32 %26, ptr %5, align 4, !tbaa !9
  call void @llvm.lifetime.start.p0(i64 8, ptr %6) #9
  call void @llvm.lifetime.start.p0(i64 4, ptr %7) #9
  store i32 0, ptr %7, align 4, !tbaa !9
  %27 = load ptr, ptr %4, align 8, !tbaa !25
  %28 = icmp ne ptr %27, null
  br i1 %28, label %29, label %67

29:                                               ; preds = %25
  %30 = load ptr, ptr %3, align 8, !tbaa !4
  %31 = getelementptr inbounds nuw %struct.AVBPrint, ptr %30, i32 0, i32 0
  %32 = load ptr, ptr %31, align 8, !tbaa !11
  %33 = load ptr, ptr %3, align 8, !tbaa !4
  %34 = getelementptr inbounds nuw %struct.AVBPrint, ptr %33, i32 0, i32 4
  %35 = getelementptr inbounds [1 x i8], ptr %34, i64 0, i64 0
  %36 = icmp ne ptr %32, %35
  br i1 %36, label %37, label %53

37:                                               ; preds = %29
  %38 = load ptr, ptr %3, align 8, !tbaa !4
  %39 = getelementptr inbounds nuw %struct.AVBPrint, ptr %38, i32 0, i32 0
  %40 = load ptr, ptr %39, align 8, !tbaa !11
  %41 = load i32, ptr %5, align 4, !tbaa !9
  %42 = zext i32 %41 to i64
  %43 = call ptr @av_realloc(ptr noundef %40, i64 noundef %42)
  store ptr %43, ptr %6, align 8, !tbaa !18
  %44 = load ptr, ptr %6, align 8, !tbaa !18
  %45 = icmp ne ptr %44, null
  br i1 %45, label %50, label %46

46:                                               ; preds = %37
  %47 = load ptr, ptr %3, align 8, !tbaa !4
  %48 = getelementptr inbounds nuw %struct.AVBPrint, ptr %47, i32 0, i32 0
  %49 = load ptr, ptr %48, align 8, !tbaa !11
  store ptr %49, ptr %6, align 8, !tbaa !18
  br label %50

50:                                               ; preds = %46, %37
  %51 = load ptr, ptr %3, align 8, !tbaa !4
  %52 = getelementptr inbounds nuw %struct.AVBPrint, ptr %51, i32 0, i32 0
  store ptr null, ptr %52, align 8, !tbaa !11
  br label %64

53:                                               ; preds = %29
  %54 = load ptr, ptr %3, align 8, !tbaa !4
  %55 = getelementptr inbounds nuw %struct.AVBPrint, ptr %54, i32 0, i32 0
  %56 = load ptr, ptr %55, align 8, !tbaa !11
  %57 = load i32, ptr %5, align 4, !tbaa !9
  %58 = zext i32 %57 to i64
  %59 = call ptr @av_memdup(ptr noundef %56, i64 noundef %58)
  store ptr %59, ptr %6, align 8, !tbaa !18
  %60 = load ptr, ptr %6, align 8, !tbaa !18
  %61 = icmp ne ptr %60, null
  br i1 %61, label %63, label %62

62:                                               ; preds = %53
  store i32 -12, ptr %7, align 4, !tbaa !9
  br label %63

63:                                               ; preds = %62, %53
  br label %64

64:                                               ; preds = %63, %50
  %65 = load ptr, ptr %6, align 8, !tbaa !18
  %66 = load ptr, ptr %4, align 8, !tbaa !25
  store ptr %65, ptr %66, align 8, !tbaa !18
  br label %79

67:                                               ; preds = %25
  %68 = load ptr, ptr %3, align 8, !tbaa !4
  %69 = getelementptr inbounds nuw %struct.AVBPrint, ptr %68, i32 0, i32 0
  %70 = load ptr, ptr %69, align 8, !tbaa !11
  %71 = load ptr, ptr %3, align 8, !tbaa !4
  %72 = getelementptr inbounds nuw %struct.AVBPrint, ptr %71, i32 0, i32 4
  %73 = getelementptr inbounds [1 x i8], ptr %72, i64 0, i64 0
  %74 = icmp ne ptr %70, %73
  br i1 %74, label %75, label %78

75:                                               ; preds = %67
  %76 = load ptr, ptr %3, align 8, !tbaa !4
  %77 = getelementptr inbounds nuw %struct.AVBPrint, ptr %76, i32 0, i32 0
  call void @av_freep(ptr noundef %77)
  br label %78

78:                                               ; preds = %75, %67
  br label %79

79:                                               ; preds = %78, %64
  %80 = load i32, ptr %5, align 4, !tbaa !9
  %81 = load ptr, ptr %3, align 8, !tbaa !4
  %82 = getelementptr inbounds nuw %struct.AVBPrint, ptr %81, i32 0, i32 2
  store i32 %80, ptr %82, align 4, !tbaa !15
  %83 = load i32, ptr %7, align 4, !tbaa !9
  call void @llvm.lifetime.end.p0(i64 4, ptr %7) #9
  call void @llvm.lifetime.end.p0(i64 8, ptr %6) #9
  call void @llvm.lifetime.end.p0(i64 4, ptr %5) #9
  ret i32 %83
}