; Function Attrs: nounwind uwtable
define range(i32 -12, 1) i32 @av_bprint_finalize(ptr noundef %0, ptr noundef writeonly captures(address_is_null) %1) local_unnamed_addr #0 {
  %3 = getelementptr inbounds nuw i8, ptr %0, i64 8
  %4 = load i32, ptr %3, align 8, !tbaa !11
  %5 = add i32 %4, 1
  %6 = getelementptr inbounds nuw i8, ptr %0, i64 12
  %7 = load i32, ptr %6, align 4, !tbaa !12
  %. = tail call i32 @llvm.umin.i32(i32 %5, i32 %7)
  %.not = icmp eq ptr %1, null
  %8 = load ptr, ptr %0, align 8, !tbaa !4
  %9 = getelementptr inbounds nuw i8, ptr %0, i64 20
  %.not32 = icmp eq ptr %8, %9
  br i1 %.not, label %20, label %10

10:                                               ; preds = %2
  %11 = zext i32 %. to i64
  br i1 %.not32, label %17, label %12

12:                                               ; preds = %10
  %13 = tail call ptr @av_realloc(ptr noundef %8, i64 noundef %11) #12
  %.not35 = icmp eq ptr %13, null
  br i1 %.not35, label %14, label %16

14:                                               ; preds = %12
  %15 = load ptr, ptr %0, align 8, !tbaa !4
  br label %16

16:                                               ; preds = %14, %12
  %.022 = phi ptr [ %13, %12 ], [ %15, %14 ]
  store ptr null, ptr %0, align 8, !tbaa !4
  br label %19

17:                                               ; preds = %10
  %18 = tail call ptr @av_memdup(ptr noundef %8, i64 noundef %11) #12
  %.not34 = icmp eq ptr %18, null
  %spec.select36 = select i1 %.not34, i32 -12, i32 0
  br label %19

19:                                               ; preds = %17, %16
  %.123 = phi ptr [ %.022, %16 ], [ %18, %17 ]
  %.0 = phi i32 [ 0, %16 ], [ %spec.select36, %17 ]
  store ptr %.123, ptr %1, align 8, !tbaa !16
  br label %22

20:                                               ; preds = %2
  br i1 %.not32, label %22, label %21

21:                                               ; preds = %20
  tail call void @av_freep(ptr noundef nonnull %0) #12
  br label %22

22:                                               ; preds = %20, %21, %19
  %.1 = phi i32 [ %.0, %19 ], [ 0, %21 ], [ 0, %20 ]
  store i32 %., ptr %6, align 4, !tbaa !12
  ret i32 %.1
}